target datalayout = "e-m:e-p270:32:32-p271:32:32-p272:64:64-i64:64-i128:128-f80:128-n8:16:32:64-S128"
target triple = "x86_64-pc-linux-gnu"

%struct.yyguts_t = type { ptr, ptr, ptr, i64, i64, ptr, i8, i32, i32, ptr, i32, i32, i32, i32, i32, ptr, i32, ptr, i32, i32, ptr, i32, i32, ptr, ptr }

@_ZL7yy_meta = internal constant [45 x i8] c"\00\01\01\02\02\01\03\04\01\05\03\03\06\07\08\09\08\0A\09\09\0B\01\0C\01\09\09\01\09\09\09\09\09\09\09\09\09\09\09\09\09\09\01\01\01\03", align 16

; Function Attrs: mustprogress nounwind uwtable
define internal noundef i32 @_ZL21yy_get_previous_statePv(ptr noundef %0) #2 {
  %2 = alloca ptr, align 8
  %3 = alloca i32, align 4
  %4 = alloca ptr, align 8
  %5 = alloca ptr, align 8
  %6 = alloca i8, align 1
  store ptr %0, ptr %2, align 8
  %7 = load ptr, ptr %2, align 8
  store ptr %7, ptr %5, align 8
  %8 = load ptr, ptr %5, align 8
  %9 = getelementptr inbounds %struct.yyguts_t, ptr %8, i32 0, i32 11
  %10 = load i32, ptr %9, align 4
  store i32 %10, ptr %3, align 4
  %11 = load ptr, ptr %5, align 8
  %12 = getelementptr inbounds %struct.yyguts_t, ptr %11, i32 0, i32 20
  %13 = load ptr, ptr %12, align 8
  %14 = getelementptr inbounds i8, ptr %13, i64 0
  store ptr %14, ptr %4, align 8
  br label %15

15:                                               ; preds = %86, %1
  %16 = load ptr, ptr %4, align 8
  %17 = load ptr, ptr %5, align 8
  %18 = getelementptr inbounds %struct.yyguts_t, ptr %17, i32 0, i32 9
  %19 = load ptr, ptr %18, align 8
  %20 = icmp ult ptr %16, %19
  br i1 %20, label %21, label %89

21:                                               ; preds = %15
  %22 = load ptr, ptr %4, align 8
  %23 = load i8, ptr %22, align 1
  %24 = icmp ne i8 %23, 0
  br i1 %24, label %25, label %32

25:                                               ; preds = %21
  %26 = load ptr, ptr %4, align 8
  %27 = load i8, ptr %26, align 1
  %28 = zext i8 %27 to i64
  %29 = getelementptr inbounds [256 x i8], ptr @_ZL5yy_ec, i64 0, i64 %28
  %30 = load i8, ptr %29, align 1
  %31 = zext i8 %30 to i32
  br label %33

32:                                               ; preds = %21
  br label %33

33:                                               ; preds = %32, %25
  %34 = phi i32 [ %31, %25 ], [ 1, %32 ]
  %35 = trunc i32 %34 to i8
  store i8 %35, ptr %6, align 1
  %36 = load i32, ptr %3, align 4
  %37 = sext i32 %36 to i64
  %38 = getelementptr inbounds [169 x i32], ptr @_ZL9yy_accept, i64 0, i64 %37
  %39 = load i32, ptr %38, align 4
  %40 = icmp ne i32 %39, 0
  br i1 %40, label %41, label %48

41:                                               ; preds = %33
  %42 = load i32, ptr %3, align 4
  %43 = load ptr, ptr %5, align 8
  %44 = getelementptr inbounds %struct.yyguts_t, ptr %43, i32 0, i32 16
  store i32 %42, ptr %44, align 8
  %45 = load ptr, ptr %4, align 8
  %46 = load ptr, ptr %5, align 8
  %47 = getelementptr inbounds %struct.yyguts_t, ptr %46, i32 0, i32 17
  store ptr %45, ptr %47, align 8
  br label %48

48:                                               ; preds = %41, %33
  br label %49

49:                                               ; preds = %74, %48
  %50 = load i32, ptr %3, align 4
  %51 = sext i32 %50 to i64
  %52 = getelementptr inbounds [191 x i32], ptr @_ZL7yy_base, i64 0, i64 %51
  %53 = load i32, ptr %52, align 4
  %54 = load i8, ptr %6, align 1
  %55 = zext i8 %54 to i32
  %56 = add nsw i32 %53, %55
  %57 = sext i32 %56 to i64
  %58 = getelementptr inbounds [602 x i32], ptr @_ZL6yy_chk, i64 0, i64 %57
  %59 = load i32, ptr %58, align 4
  %60 = load i32, ptr %3, align 4
  %61 = icmp ne i32 %59, %60
  br i1 %61, label %62, label %75

62:                                               ; preds = %49
  %63 = load i32, ptr %3, align 4
  %64 = sext i32 %63 to i64
  %65 = getelementptr inbounds [191 x i32], ptr @_ZL6yy_def, i64 0, i64 %64
  %66 = load i32, ptr %65, align 4
  store i32 %66, ptr %3, align 4
  %67 = load i32, ptr %3, align 4
  %68 = icmp sge i32 %67, 169
  br i1 %68, label %69, label %74

69:                                               ; preds = %62
  %70 = load i8, ptr %6, align 1
  %71 = zext i8 %70 to i64
  %72 = getelementptr inbounds [45 x i8], ptr @_ZL7yy_meta, i64 0, i64 %71
  %73 = load i8, ptr %72, align 1
  store i8 %73, ptr %6, align 1
  br label %74

74:                                               ; preds = %69, %62
  br label %49, !llvm.loop !10

75:                                               ; preds = %49
  %76 = load i32, ptr %3, align 4
  %77 = sext i32 %76 to i64
  %78 = getelementptr inbounds [191 x i32], ptr @_ZL7yy_base, i64 0, i64 %77
  %79 = load i32, ptr %78, align 4
  %80 = load i8, ptr %6, align 1
  %81 = zext i8 %80 to i32
  %82 = add nsw i32 %79, %81
  %83 = sext i32 %82 to i64
  %84 = getelementptr inbounds [602 x i32], ptr @_ZL6yy_nxt, i64 0, i64 %83
  %85 = load i32, ptr %84, align 4
  store i32 %85, ptr %3, align 4
  br label %86

86:                                               ; preds = %75
  %87 = load ptr, ptr %4, align 8
  %88 = getelementptr inbounds i8, ptr %87, i32 1
  store ptr %88, ptr %4, align 8
  br label %15, !llvm.loop !11

89:                                               ; preds = %15
  %90 = load i32, ptr %3, align 4
  ret i32 %90
}