; Function Attrs: mustprogress nofree norecurse nosync nounwind memory(read, argmem: readwrite, inaccessiblemem: none) uwtable
define internal fastcc noundef i32 @_ZL21yy_get_previous_statePv(ptr nocapture noundef %0) unnamed_addr #6 {
  %2 = getelementptr inbounds i8, ptr %0, i64 76
  %3 = getelementptr inbounds i8, ptr %0, i64 128
  %4 = load ptr, ptr %3, align 8
  %5 = getelementptr inbounds i8, ptr %0, i64 64
  %6 = load ptr, ptr %5, align 8
  %.02129 = load i32, ptr %2, align 4
  %7 = icmp ult ptr %4, %6
  br i1 %7, label %.lr.ph33, label %._crit_edge34

.lr.ph33:                                         ; preds = %1
  %8 = getelementptr inbounds i8, ptr %0, i64 104
  %9 = getelementptr inbounds i8, ptr %0, i64 112
  br label %10

10:                                               ; preds = %.lr.ph33, %._crit_edge
  %.02131 = phi i32 [ %.02129, %.lr.ph33 ], [ %.021, %._crit_edge ]
  %.02330 = phi ptr [ %4, %.lr.ph33 ], [ %48, %._crit_edge ]
  %11 = load i8, ptr %.02330, align 1
  %.not = icmp eq i8 %11, 0
  br i1 %.not, label %16, label %12

12:                                               ; preds = %10
  %13 = zext i8 %11 to i64
  %14 = getelementptr inbounds [256 x i8], ptr @_ZL5yy_ec, i64 0, i64 %13
  %15 = load i8, ptr %14, align 1
  br label %16

16:                                               ; preds = %10, %12
  %17 = phi i8 [ %15, %12 ], [ 1, %10 ]
  %18 = sext i32 %.02131 to i64
  %19 = getelementptr inbounds [169 x i32], ptr @_ZL9yy_accept, i64 0, i64 %18
  %20 = load i32, ptr %19, align 4
  %.not25 = icmp eq i32 %20, 0
  br i1 %.not25, label %22, label %21

21:                                               ; preds = %16
  store i32 %.02131, ptr %8, align 8
  store ptr %.02330, ptr %9, align 8
  br label %22

22:                                               ; preds = %21, %16
  %23 = getelementptr inbounds [191 x i32], ptr @_ZL7yy_base, i64 0, i64 %18
  %24 = load i32, ptr %23, align 4
  %25 = zext i8 %17 to i32
  %26 = add nsw i32 %24, %25
  %27 = sext i32 %26 to i64
  %28 = getelementptr inbounds [602 x i32], ptr @_ZL6yy_chk, i64 0, i64 %27
  %29 = load i32, ptr %28, align 4
  %.not2627 = icmp eq i32 %29, %.02131
  br i1 %.not2627, label %._crit_edge, label %.lr.ph

.lr.ph:                                           ; preds = %22, %38
  %30 = phi i64 [ %39, %38 ], [ %18, %22 ]
  %.028 = phi i8 [ %.1, %38 ], [ %17, %22 ]
  %31 = getelementptr inbounds [191 x i32], ptr @_ZL6yy_def, i64 0, i64 %30
  %32 = load i32, ptr %31, align 4
  %33 = icmp sgt i32 %32, 168
  br i1 %33, label %34, label %38

34:                                               ; preds = %.lr.ph
  %35 = zext i8 %.028 to i64
  %36 = getelementptr inbounds [45 x i8], ptr @_ZL7yy_meta, i64 0, i64 %35
  %37 = load i8, ptr %36, align 1
  br label %38

38:                                               ; preds = %34, %.lr.ph
  %.1 = phi i8 [ %37, %34 ], [ %.028, %.lr.ph ]
  %39 = sext i32 %32 to i64
  %40 = getelementptr inbounds [191 x i32], ptr @_ZL7yy_base, i64 0, i64 %39
  %41 = load i32, ptr %40, align 4
  %42 = zext i8 %.1 to i32
  %43 = add nsw i32 %41, %42
  %44 = sext i32 %43 to i64
  %45 = getelementptr inbounds [602 x i32], ptr @_ZL6yy_chk, i64 0, i64 %44
  %46 = load i32, ptr %45, align 4
  %.not26 = icmp eq i32 %46, %32
  br i1 %.not26, label %._crit_edge, label %.lr.ph, !llvm.loop !18

._crit_edge:                                      ; preds = %38, %22
  %.lcssa = phi i64 [ %27, %22 ], [ %44, %38 ]
  %47 = getelementptr inbounds [602 x i32], ptr @_ZL6yy_nxt, i64 0, i64 %.lcssa
  %48 = getelementptr inbounds i8, ptr %.02330, i64 1
  %.021 = load i32, ptr %47, align 4
  %exitcond.not = icmp eq ptr %48, %6
  br i1 %exitcond.not, label %._crit_edge34, label %10, !llvm.loop !19

._crit_edge34:                                    ; preds = %._crit_edge, %1
  %.021.lcssa = phi i32 [ %.02129, %1 ], [ %.021, %._crit_edge ]
  ret i32 %.021.lcssa
}